; Function Attrs: nounwind sspstrong uwtable
define dso_local noundef zeroext i1 @visit_type_ChardevMux(ptr noundef %v, ptr noundef %name, ptr noundef %obj, ptr noundef %errp) local_unnamed_addr #0 {
entry:
  %has_logfile.i.i = alloca i8, align 1
  %call = tail call zeroext i1 @visit_start_struct(ptr noundef %v, ptr noundef %name, ptr noundef %obj, i64 noundef 24, ptr noundef %errp) #5
  br i1 %call, label %if.end, label %return

if.end:                                           ; preds = %entry
  %0 = load ptr, ptr %obj, align 8
  %tobool.not = icmp eq ptr %0, null
  br i1 %tobool.not, label %if.then1, label %if.end5

if.then1:                                         ; preds = %if.end
  %call2 = tail call zeroext i1 @visit_is_dealloc(ptr noundef %v) #5
  br i1 %call2, label %out_obj.thread17, label %if.else

out_obj.thread17:                                 ; preds = %if.then1
  tail call void @visit_end_struct(ptr noundef %v, ptr noundef nonnull %obj) #5
  br label %return

if.else:                                          ; preds = %if.then1
  tail call void @__assert_fail(ptr noundef nonnull @.str.3, ptr noundef nonnull @.str.4, i32 noundef 475, ptr noundef nonnull @__PRETTY_FUNCTION__.visit_type_ChardevMux) #6
  unreachable

if.end5:                                          ; preds = %if.end
  call void @llvm.lifetime.start.p0(i64 1, ptr nonnull %has_logfile.i.i)
  %1 = load ptr, ptr %0, align 8
  %tobool.i.i = icmp ne ptr %1, null
  %frombool.i.i = zext i1 %tobool.i.i to i8
  store i8 %frombool.i.i, ptr %has_logfile.i.i, align 1
  %call.i.i = call zeroext i1 @visit_optional(ptr noundef %v, ptr noundef nonnull @.str.10, ptr noundef nonnull %has_logfile.i.i) #5
  br i1 %call.i.i, label %if.then.i.i, label %if.end5.i.i

if.then.i.i:                                      ; preds = %if.end5
  %call3.i.i = call zeroext i1 @visit_type_str(ptr noundef %v, ptr noundef nonnull @.str.10, ptr noundef nonnull %0, ptr noundef %errp) #5
  br i1 %call3.i.i, label %if.end5.i.i, label %visit_type_ChardevMux_members.exit.thread

if.end5.i.i:                                      ; preds = %if.then.i.i, %if.end5
  %has_logappend.i.i = getelementptr inbounds nuw i8, ptr %0, i64 8
  %call6.i.i = call zeroext i1 @visit_optional(ptr noundef %v, ptr noundef nonnull @.str.11, ptr noundef nonnull %has_logappend.i.i) #5
  br i1 %call6.i.i, label %if.then7.i.i, label %visit_type_ChardevMux_members.exit

if.then7.i.i:                                     ; preds = %if.end5.i.i
  %logappend.i.i = getelementptr inbounds nuw i8, ptr %0, i64 9
  %call8.i.i = call zeroext i1 @visit_type_bool(ptr noundef %v, ptr noundef nonnull @.str.11, ptr noundef nonnull %logappend.i.i, ptr noundef %errp) #5
  br i1 %call8.i.i, label %visit_type_ChardevMux_members.exit, label %visit_type_ChardevMux_members.exit.thread

visit_type_ChardevMux_members.exit.thread:        ; preds = %if.then.i.i, %if.then7.i.i
  call void @llvm.lifetime.end.p0(i64 1, ptr nonnull %has_logfile.i.i)
  br label %out_obj.thread

visit_type_ChardevMux_members.exit:               ; preds = %if.end5.i.i, %if.then7.i.i
  call void @llvm.lifetime.end.p0(i64 1, ptr nonnull %has_logfile.i.i)
  %chardev.i = getelementptr inbounds nuw i8, ptr %0, i64 16
  %call1.i = call zeroext i1 @visit_type_str(ptr noundef %v, ptr noundef nonnull @.str.27, ptr noundef nonnull %chardev.i, ptr noundef %errp) #5
  br i1 %call1.i, label %out_obj, label %out_obj.thread

out_obj.thread:                                   ; preds = %visit_type_ChardevMux_members.exit, %visit_type_ChardevMux_members.exit.thread
  call void @visit_end_struct(ptr noundef %v, ptr noundef nonnull %obj) #5
  br label %land.lhs.true

out_obj:                                          ; preds = %visit_type_ChardevMux_members.exit
  %call9 = call zeroext i1 @visit_check_struct(ptr noundef %v, ptr noundef %errp) #5
  call void @visit_end_struct(ptr noundef %v, ptr noundef nonnull %obj) #5
  br i1 %call9, label %return, label %land.lhs.true

land.lhs.true:                                    ; preds = %out_obj.thread, %out_obj
  %call11 = call zeroext i1 @visit_is_input(ptr noundef %v) #5
  br i1 %call11, label %if.then12, label %return

if.then12:                                        ; preds = %land.lhs.true
  %2 = load ptr, ptr %obj, align 8
  call void @qapi_free_ChardevMux(ptr noundef %2) #5
  store ptr null, ptr %obj, align 8
  br label %return

return:                                           ; preds = %out_obj.thread17, %out_obj, %land.lhs.true, %if.then12, %entry
  %retval.0 = phi i1 [ false, %entry ], [ false, %if.then12 ], [ false, %land.lhs.true ], [ true, %out_obj ], [ true, %out_obj.thread17 ]
  ret i1 %retval.0
}